target datalayout = "e-m:e-p270:32:32-p271:32:32-p272:64:64-i64:64-i128:128-f80:128-n8:16:32:64-S128"
target triple = "x86_64-pc-linux-gnu"

%struct.hwloc__xml_export_state_s = type { ptr, ptr, ptr, ptr, ptr, ptr, [48 x i8] }
%struct.hwloc__libxml_export_state_data_s = type { ptr }

@hwloc_libxml2_init_once.checked = internal global i32 0, align 4
@.str.3 = private unnamed_addr constant [21 x i8] c"HWLOC_LIBXML_CLEANUP\00", align 1
@hwloc_libxml2_needs_cleanup = internal global i32 0, align 4
@.str.5 = private unnamed_addr constant [11 x i8] c"hwloc2.dtd\00", align 1
@.str.8 = private unnamed_addr constant [9 x i8] c"topology\00", align 1
@.str.9 = private unnamed_addr constant [8 x i8] c"version\00", align 1
@.str.17 = private unnamed_addr constant [4 x i8] c"1.0\00", align 1
@.str.18 = private unnamed_addr constant [4 x i8] c"2.0\00", align 1
@.str.19 = private unnamed_addr constant [4 x i8] c"3.0\00", align 1

; Function Attrs: nounwind uwtable
define internal void @hwloc_libxml2_init_once() #0 {
  %1 = load i32, ptr @hwloc_libxml2_init_once.checked, align 4, !tbaa !12
  %2 = icmp ne i32 %1, 0
  br i1 %2, label %16, label %3

3:                                                ; preds = %0
  %4 = call i32 @hwloc__xml_verbose()
  %5 = icmp ne i32 %4, 0
  br i1 %5, label %6, label %9

6:                                                ; preds = %3
  %7 = call ptr @__xmlGenericError()
  %8 = load ptr, ptr %7, align 8, !tbaa !29
  br label %10

9:                                                ; preds = %3
  br label %10

10:                                               ; preds = %9, %6
  %11 = phi ptr [ %8, %6 ], [ @hwloc_libxml2_error_callback, %9 ]
  call void @xmlSetGenericErrorFunc(ptr noundef null, ptr noundef %11)
  %12 = call ptr @getenv(ptr noundef @.str.3) #7
  %13 = icmp ne ptr %12, null
  br i1 %13, label %14, label %15

14:                                               ; preds = %10
  store i32 1, ptr @hwloc_libxml2_needs_cleanup, align 4, !tbaa !12
  br label %15

15:                                               ; preds = %14, %10
  store i32 1, ptr @hwloc_libxml2_init_once.checked, align 4, !tbaa !12
  br label %16

16:                                               ; preds = %15, %0
  ret void
}

; Function Attrs: nounwind uwtable
define internal ptr @hwloc__libxml2_prepare_export(ptr noundef %0, ptr noundef %1, i64 noundef %2) #0 {
  %4 = alloca ptr, align 8
  %5 = alloca ptr, align 8
  %6 = alloca i64, align 8
  %7 = alloca %struct.hwloc__xml_export_state_s, align 8
  %8 = alloca ptr, align 8
  %9 = alloca i32, align 4
  %10 = alloca ptr, align 8
  %11 = alloca ptr, align 8
  store ptr %0, ptr %4, align 8, !tbaa !21
  store ptr %1, ptr %5, align 8, !tbaa !23
  store i64 %2, ptr %6, align 8, !tbaa !3
  call void @llvm.lifetime.start.p0(i64 96, ptr %7) #7
  call void @llvm.lifetime.start.p0(i64 8, ptr %8) #7
  %12 = getelementptr inbounds nuw %struct.hwloc__xml_export_state_s, ptr %7, i32 0, i32 6
  %13 = getelementptr inbounds [48 x i8], ptr %12, i64 0, i64 0
  store ptr %13, ptr %8, align 8, !tbaa !78
  call void @llvm.lifetime.start.p0(i64 4, ptr %9) #7
  %14 = load i64, ptr %6, align 8, !tbaa !3
  %15 = and i64 %14, 2
  %16 = trunc i64 %15 to i32
  store i32 %16, ptr %9, align 4, !tbaa !12
  call void @llvm.lifetime.start.p0(i64 8, ptr %10) #7
  store ptr null, ptr %10, align 8, !tbaa !14
  call void @llvm.lifetime.start.p0(i64 8, ptr %11) #7
  store ptr null, ptr %11, align 8, !tbaa !46
  call void @xmlCheckVersion(i32 noundef 20913)
  call void @hwloc_libxml2_init_once()
  %17 = call ptr @xmlNewDoc(ptr noundef @.str.17)
  store ptr %17, ptr %10, align 8, !tbaa !14
  %18 = call ptr @xmlNewNode(ptr noundef null, ptr noundef @.str.8)
  store ptr %18, ptr %11, align 8, !tbaa !46
  %19 = load i32, ptr %9, align 4, !tbaa !12
  %20 = icmp ne i32 %19, 0
  br i1 %20, label %21, label %24

21:                                               ; preds = %3
  %22 = load ptr, ptr %11, align 8, !tbaa !46
  %23 = call ptr @xmlNewProp(ptr noundef %22, ptr noundef @.str.9, ptr noundef @.str.18)
  br label %27

24:                                               ; preds = %3
  %25 = load ptr, ptr %11, align 8, !tbaa !46
  %26 = call ptr @xmlNewProp(ptr noundef %25, ptr noundef @.str.9, ptr noundef @.str.19)
  br label %27

27:                                               ; preds = %24, %21
  %28 = load ptr, ptr %10, align 8, !tbaa !14
  %29 = load ptr, ptr %11, align 8, !tbaa !46
  %30 = call ptr @xmlDocSetRootElement(ptr noundef %28, ptr noundef %29)
  %31 = load ptr, ptr %10, align 8, !tbaa !14
  %32 = call ptr @xmlCreateIntSubset(ptr noundef %31, ptr noundef @.str.8, ptr noundef null, ptr noundef @.str.5)
  %33 = getelementptr inbounds nuw %struct.hwloc__xml_export_state_s, ptr %7, i32 0, i32 1
  store ptr @hwloc__libxml_export_new_child, ptr %33, align 8, !tbaa !80
  %34 = getelementptr inbounds nuw %struct.hwloc__xml_export_state_s, ptr %7, i32 0, i32 2
  store ptr @hwloc__libxml_export_new_prop, ptr %34, align 8, !tbaa !83
  %35 = getelementptr inbounds nuw %struct.hwloc__xml_export_state_s, ptr %7, i32 0, i32 3
  store ptr @hwloc__libxml_export_add_content, ptr %35, align 8, !tbaa !84
  %36 = getelementptr inbounds nuw %struct.hwloc__xml_export_state_s, ptr %7, i32 0, i32 4
  store ptr @hwloc__libxml_export_end_object, ptr %36, align 8, !tbaa !85
  %37 = load ptr, ptr %5, align 8, !tbaa !23
  %38 = getelementptr inbounds nuw %struct.hwloc__xml_export_state_s, ptr %7, i32 0, i32 5
  store ptr %37, ptr %38, align 8, !tbaa !86
  %39 = load ptr, ptr %11, align 8, !tbaa !46
  %40 = load ptr, ptr %8, align 8, !tbaa !78
  %41 = getelementptr inbounds nuw %struct.hwloc__libxml_export_state_data_s, ptr %40, i32 0, i32 0
  store ptr %39, ptr %41, align 8, !tbaa !59
  %42 = load ptr, ptr %4, align 8, !tbaa !21
  %43 = load i64, ptr %6, align 8, !tbaa !3
  call void @hwloc__xml_export_topology(ptr noundef %7, ptr noundef %42, i64 noundef %43)
  %44 = load ptr, ptr %10, align 8, !tbaa !14
  call void @llvm.lifetime.end.p0(i64 8, ptr %11) #7
  call void @llvm.lifetime.end.p0(i64 8, ptr %10) #7
  call void @llvm.lifetime.end.p0(i64 4, ptr %9) #7
  call void @llvm.lifetime.end.p0(i64 8, ptr %8) #7
  call void @llvm.lifetime.end.p0(i64 96, ptr %7) #7
  ret ptr %44
}