; Function Attrs: nounwind uwtable
define internal fastcc ptr @hwloc__libxml2_prepare_export(ptr noundef %0, ptr noundef %1, i64 noundef %2) unnamed_addr #1 {
  %4 = alloca %struct.hwloc__xml_export_state_s, align 8
  call void @llvm.lifetime.start.p0(i64 96, ptr nonnull %4) #11
  tail call void @xmlCheckVersion(i32 noundef 20913) #11
  %.b.i = load i1, ptr @hwloc_libxml2_init_once.checked, align 4
  br i1 %.b.i, label %hwloc_libxml2_init_once.exit, label %5

5:                                                ; preds = %3
  %6 = tail call i32 @hwloc__xml_verbose() #11
  %.not.i = icmp eq i32 %6, 0
  br i1 %.not.i, label %10, label %7

7:                                                ; preds = %5
  %8 = tail call ptr @__xmlGenericError() #11
  %9 = load ptr, ptr %8, align 8, !tbaa !3
  br label %10

10:                                               ; preds = %7, %5
  %11 = phi ptr [ %9, %7 ], [ @hwloc_libxml2_error_callback, %5 ]
  tail call void @xmlSetGenericErrorFunc(ptr noundef null, ptr noundef %11) #11
  %12 = tail call ptr @getenv(ptr noundef nonnull @.str.3) #11
  %.not1.i = icmp eq ptr %12, null
  br i1 %.not1.i, label %14, label %13

13:                                               ; preds = %10
  store i1 true, ptr @hwloc_libxml2_needs_cleanup, align 4
  br label %14

14:                                               ; preds = %13, %10
  store i1 true, ptr @hwloc_libxml2_init_once.checked, align 4
  br label %hwloc_libxml2_init_once.exit

hwloc_libxml2_init_once.exit:                     ; preds = %3, %14
  %15 = tail call ptr @xmlNewDoc(ptr noundef nonnull @.str.17) #11
  %16 = tail call ptr @xmlNewNode(ptr noundef null, ptr noundef nonnull @.str.8) #11
  %17 = and i64 %2, 2
  %.not = icmp eq i64 %17, 0
  %.str.19..str.18 = select i1 %.not, ptr @.str.19, ptr @.str.18
  %18 = tail call ptr @xmlNewProp(ptr noundef %16, ptr noundef nonnull @.str.9, ptr noundef nonnull %.str.19..str.18) #11
  %19 = getelementptr inbounds nuw i8, ptr %4, i64 48
  %20 = tail call ptr @xmlDocSetRootElement(ptr noundef %15, ptr noundef %16) #11
  %21 = tail call ptr @xmlCreateIntSubset(ptr noundef %15, ptr noundef nonnull @.str.8, ptr noundef null, ptr noundef nonnull @.str.5) #11
  %22 = getelementptr inbounds nuw i8, ptr %4, i64 8
  store ptr @hwloc__libxml_export_new_child, ptr %22, align 8, !tbaa !54
  %23 = getelementptr inbounds nuw i8, ptr %4, i64 16
  store ptr @hwloc__libxml_export_new_prop, ptr %23, align 8, !tbaa !58
  %24 = getelementptr inbounds nuw i8, ptr %4, i64 24
  store ptr @hwloc__libxml_export_add_content, ptr %24, align 8, !tbaa !59
  %25 = getelementptr inbounds nuw i8, ptr %4, i64 32
  store ptr @hwloc__libxml_export_end_object, ptr %25, align 8, !tbaa !60
  %26 = getelementptr inbounds nuw i8, ptr %4, i64 40
  store ptr %1, ptr %26, align 8, !tbaa !61
  store ptr %16, ptr %19, align 8, !tbaa !39
  call void @hwloc__xml_export_topology(ptr noundef nonnull %4, ptr noundef %0, i64 noundef %2) #11
  call void @llvm.lifetime.end.p0(i64 96, ptr nonnull %4) #11
  ret ptr %15
}